; Function Attrs: mustprogress nounwind uwtable
define internal void @_ZN8facebook5velox9functions12_GLOBAL__N_136WidthBucketArrayFunctionConstantBinsD0Ev(ptr noundef nonnull align 8 dereferenceable(32) %this) unnamed_addr #4 align 2 personality ptr @__gxx_personality_v0 {
entry:
  store ptr getelementptr inbounds ({ [12 x ptr] }, ptr @_ZTVN8facebook5velox9functions12_GLOBAL__N_136WidthBucketArrayFunctionConstantBinsE, i64 0, i32 0, i64 2), ptr %this, align 8
  %bins_.i = getelementptr inbounds i8, ptr %this, i64 8
  %0 = load ptr, ptr %bins_.i, align 8
  %tobool.not.i.i.i.i = icmp eq ptr %0, null
  br i1 %tobool.not.i.i.i.i, label %_ZN8facebook5velox9functions12_GLOBAL__N_136WidthBucketArrayFunctionConstantBinsD2Ev.exit, label %if.then.i.i.i.i

if.then.i.i.i.i:                                  ; preds = %entry
  tail call void @_ZdlPv(ptr noundef nonnull %0) #25
  br label %_ZN8facebook5velox9functions12_GLOBAL__N_136WidthBucketArrayFunctionConstantBinsD2Ev.exit

_ZN8facebook5velox9functions12_GLOBAL__N_136WidthBucketArrayFunctionConstantBinsD2Ev.exit: ; preds = %entry, %if.then.i.i.i.i
  tail call void @_ZdlPv(ptr noundef nonnull %this) #25
  ret void
}